target datalayout = "e-m:e-p270:32:32-p271:32:32-p272:64:64-i64:64-i128:128-f80:128-n8:16:32:64-S128"
target triple = "x86_64-pc-linux-gnu"

@s_Truths6Neg = internal global [6 x i64] [i64 6148914691236517205, i64 3689348814741910323, i64 1085102592571150095, i64 71777214294589695, i64 281470681808895, i64 4294967295], align 16

; Function Attrs: inlinehint nounwind uwtable
define internal i32 @Abc_TtWordNum(i32 noundef %0) #2 {
  %2 = alloca i32, align 4
  store i32 %0, ptr %2, align 4, !tbaa !8
  %3 = load i32, ptr %2, align 4, !tbaa !8
  %4 = icmp sle i32 %3, 6
  br i1 %4, label %5, label %6

5:                                                ; preds = %1
  br label %10

6:                                                ; preds = %1
  %7 = load i32, ptr %2, align 4, !tbaa !8
  %8 = sub nsw i32 %7, 6
  %9 = shl i32 1, %8
  br label %10

10:                                               ; preds = %6, %5
  %11 = phi i32 [ 1, %5 ], [ %9, %6 ]
  ret i32 %11
}

; Function Attrs: inlinehint nounwind uwtable
define internal i32 @Abc_TtCountOnes(i64 noundef %0) #2 {
  %2 = alloca i64, align 8
  store i64 %0, ptr %2, align 8, !tbaa !10
  %3 = load i64, ptr %2, align 8, !tbaa !10
  %4 = load i64, ptr %2, align 8, !tbaa !10
  %5 = lshr i64 %4, 1
  %6 = and i64 %5, 6148914691236517205
  %7 = sub i64 %3, %6
  store i64 %7, ptr %2, align 8, !tbaa !10
  %8 = load i64, ptr %2, align 8, !tbaa !10
  %9 = and i64 %8, 3689348814741910323
  %10 = load i64, ptr %2, align 8, !tbaa !10
  %11 = lshr i64 %10, 2
  %12 = and i64 %11, 3689348814741910323
  %13 = add i64 %9, %12
  store i64 %13, ptr %2, align 8, !tbaa !10
  %14 = load i64, ptr %2, align 8, !tbaa !10
  %15 = load i64, ptr %2, align 8, !tbaa !10
  %16 = lshr i64 %15, 4
  %17 = add i64 %14, %16
  %18 = and i64 %17, 1085102592571150095
  store i64 %18, ptr %2, align 8, !tbaa !10
  %19 = load i64, ptr %2, align 8, !tbaa !10
  %20 = load i64, ptr %2, align 8, !tbaa !10
  %21 = lshr i64 %20, 8
  %22 = add i64 %19, %21
  store i64 %22, ptr %2, align 8, !tbaa !10
  %23 = load i64, ptr %2, align 8, !tbaa !10
  %24 = load i64, ptr %2, align 8, !tbaa !10
  %25 = lshr i64 %24, 16
  %26 = add i64 %23, %25
  store i64 %26, ptr %2, align 8, !tbaa !10
  %27 = load i64, ptr %2, align 8, !tbaa !10
  %28 = load i64, ptr %2, align 8, !tbaa !10
  %29 = lshr i64 %28, 32
  %30 = add i64 %27, %29
  store i64 %30, ptr %2, align 8, !tbaa !10
  %31 = load i64, ptr %2, align 8, !tbaa !10
  %32 = and i64 %31, 255
  %33 = trunc i64 %32 to i32
  ret i32 %33
}

; Function Attrs: inlinehint nounwind uwtable
define internal void @Abc_TtVerifySmallTruth(ptr noundef %0, i32 noundef %1) #2 {
  %3 = alloca ptr, align 8
  %4 = alloca i32, align 4
  store ptr %0, ptr %3, align 8, !tbaa !3
  store i32 %1, ptr %4, align 4, !tbaa !8
  ret void
}

; Function Attrs: inlinehint nounwind uwtable
define internal void @Abc_TtCountOnesInCofs(ptr noundef %0, i32 noundef %1, ptr noundef %2) #2 {
  %4 = alloca ptr, align 8
  %5 = alloca i32, align 4
  %6 = alloca ptr, align 8
  %7 = alloca i64, align 8
  %8 = alloca i32, align 4
  %9 = alloca i32, align 4
  %10 = alloca i32, align 4
  %11 = alloca i32, align 4
  %12 = alloca i32, align 4
  store ptr %0, ptr %4, align 8, !tbaa !3
  store i32 %1, ptr %5, align 4, !tbaa !8
  store ptr %2, ptr %6, align 8, !tbaa !14
  call void @llvm.lifetime.start.p0(i64 8, ptr %7) #12
  call void @llvm.lifetime.start.p0(i64 4, ptr %8) #12
  call void @llvm.lifetime.start.p0(i64 4, ptr %9) #12
  call void @llvm.lifetime.start.p0(i64 4, ptr %10) #12
  call void @llvm.lifetime.start.p0(i64 4, ptr %11) #12
  %13 = load i32, ptr %5, align 4, !tbaa !8
  %14 = icmp sle i32 %13, 6
  br i1 %14, label %15, label %40

15:                                               ; preds = %3
  %16 = load ptr, ptr %4, align 8, !tbaa !3
  %17 = load i32, ptr %5, align 4, !tbaa !8
  call void @Abc_TtVerifySmallTruth(ptr noundef %16, i32 noundef %17)
  store i32 0, ptr %8, align 4, !tbaa !8
  br label %18

18:                                               ; preds = %36, %15
  %19 = load i32, ptr %8, align 4, !tbaa !8
  %20 = load i32, ptr %5, align 4, !tbaa !8
  %21 = icmp slt i32 %19, %20
  br i1 %21, label %22, label %39

22:                                               ; preds = %18
  %23 = load ptr, ptr %4, align 8, !tbaa !3
  %24 = getelementptr inbounds i64, ptr %23, i64 0
  %25 = load i64, ptr %24, align 8, !tbaa !10
  %26 = load i32, ptr %8, align 4, !tbaa !8
  %27 = sext i32 %26 to i64
  %28 = getelementptr inbounds [6 x i64], ptr @s_Truths6Neg, i64 0, i64 %27
  %29 = load i64, ptr %28, align 8, !tbaa !10
  %30 = and i64 %25, %29
  %31 = call i32 @Abc_TtCountOnes(i64 noundef %30)
  %32 = load ptr, ptr %6, align 8, !tbaa !14
  %33 = load i32, ptr %8, align 4, !tbaa !8
  %34 = sext i32 %33 to i64
  %35 = getelementptr inbounds i32, ptr %32, i64 %34
  store i32 %31, ptr %35, align 4, !tbaa !8
  br label %36

36:                                               ; preds = %22
  %37 = load i32, ptr %8, align 4, !tbaa !8
  %38 = add nsw i32 %37, 1
  store i32 %38, ptr %8, align 4, !tbaa !8
  br label %18, !llvm.loop !16

39:                                               ; preds = %18
  store i32 1, ptr %12, align 4
  br label %179

40:                                               ; preds = %3
  %41 = load i32, ptr %5, align 4, !tbaa !8
  %42 = call i32 @Abc_TtWordNum(i32 noundef %41)
  store i32 %42, ptr %11, align 4, !tbaa !8
  %43 = load ptr, ptr %6, align 8, !tbaa !14
  %44 = load i32, ptr %5, align 4, !tbaa !8
  %45 = sext i32 %44 to i64
  %46 = mul i64 4, %45
  call void @llvm.memset.p0.i64(ptr align 4 %43, i8 0, i64 %46, i1 false)
  store i32 0, ptr %9, align 4, !tbaa !8
  br label %47

47:                                               ; preds = %175, %40
  %48 = load i32, ptr %9, align 4, !tbaa !8
  %49 = load i32, ptr %11, align 4, !tbaa !8
  %50 = icmp slt i32 %48, %49
  br i1 %50, label %51, label %178

51:                                               ; preds = %47
  store i32 0, ptr %8, align 4, !tbaa !8
  br label %52

52:                                               ; preds = %93, %51
  %53 = load i32, ptr %8, align 4, !tbaa !8
  %54 = icmp slt i32 %53, 6
  br i1 %54, label %55, label %96

55:                                               ; preds = %52
  %56 = load ptr, ptr %4, align 8, !tbaa !3
  %57 = load i32, ptr %9, align 4, !tbaa !8
  %58 = sext i32 %57 to i64
  %59 = getelementptr inbounds i64, ptr %56, i64 %58
  %60 = load i64, ptr %59, align 8, !tbaa !10
  %61 = load i32, ptr %8, align 4, !tbaa !8
  %62 = sext i32 %61 to i64
  %63 = getelementptr inbounds [6 x i64], ptr @s_Truths6Neg, i64 0, i64 %62
  %64 = load i64, ptr %63, align 8, !tbaa !10
  %65 = and i64 %60, %64
  %66 = load ptr, ptr %4, align 8, !tbaa !3
  %67 = load i32, ptr %9, align 4, !tbaa !8
  %68 = add nsw i32 %67, 1
  %69 = sext i32 %68 to i64
  %70 = getelementptr inbounds i64, ptr %66, i64 %69
  %71 = load i64, ptr %70, align 8, !tbaa !10
  %72 = load i32, ptr %8, align 4, !tbaa !8
  %73 = sext i32 %72 to i64
  %74 = getelementptr inbounds [6 x i64], ptr @s_Truths6Neg, i64 0, i64 %73
  %75 = load i64, ptr %74, align 8, !tbaa !10
  %76 = and i64 %71, %75
  %77 = load i32, ptr %8, align 4, !tbaa !8
  %78 = shl i32 1, %77
  %79 = zext i32 %78 to i64
  %80 = shl i64 %76, %79
  %81 = or i64 %65, %80
  store i64 %81, ptr %7, align 8, !tbaa !10
  %82 = icmp ne i64 %81, 0
  br i1 %82, label %83, label %92

83:                                               ; preds = %55
  %84 = load i64, ptr %7, align 8, !tbaa !10
  %85 = call i32 @Abc_TtCountOnes(i64 noundef %84)
  %86 = load ptr, ptr %6, align 8, !tbaa !14
  %87 = load i32, ptr %8, align 4, !tbaa !8
  %88 = sext i32 %87 to i64
  %89 = getelementptr inbounds i32, ptr %86, i64 %88
  %90 = load i32, ptr %89, align 4, !tbaa !8
  %91 = add nsw i32 %90, %85
  store i32 %91, ptr %89, align 4, !tbaa !8
  br label %92

92:                                               ; preds = %83, %55
  br label %93

93:                                               ; preds = %92
  %94 = load i32, ptr %8, align 4, !tbaa !8
  %95 = add nsw i32 %94, 1
  store i32 %95, ptr %8, align 4, !tbaa !8
  br label %52, !llvm.loop !17

96:                                               ; preds = %52
  %97 = load ptr, ptr %4, align 8, !tbaa !3
  %98 = load i32, ptr %9, align 4, !tbaa !8
  %99 = sext i32 %98 to i64
  %100 = getelementptr inbounds i64, ptr %97, i64 %99
  %101 = load i64, ptr %100, align 8, !tbaa !10
  %102 = icmp ne i64 %101, 0
  br i1 %102, label %103, label %134

103:                                              ; preds = %96
  %104 = load ptr, ptr %4, align 8, !tbaa !3
  %105 = load i32, ptr %9, align 4, !tbaa !8
  %106 = sext i32 %105 to i64
  %107 = getelementptr inbounds i64, ptr %104, i64 %106
  %108 = load i64, ptr %107, align 8, !tbaa !10
  %109 = call i32 @Abc_TtCountOnes(i64 noundef %108)
  store i32 %109, ptr %10, align 4, !tbaa !8
  store i32 6, ptr %8, align 4, !tbaa !8
  br label %110

110:                                              ; preds = %130, %103
  %111 = load i32, ptr %8, align 4, !tbaa !8
  %112 = load i32, ptr %5, align 4, !tbaa !8
  %113 = icmp slt i32 %111, %112
  br i1 %113, label %114, label %133

114:                                              ; preds = %110
  %115 = load i32, ptr %9, align 4, !tbaa !8
  %116 = load i32, ptr %8, align 4, !tbaa !8
  %117 = sub nsw i32 %116, 6
  %118 = shl i32 1, %117
  %119 = and i32 %115, %118
  %120 = icmp eq i32 %119, 0
  br i1 %120, label %121, label %129

121:                                              ; preds = %114
  %122 = load i32, ptr %10, align 4, !tbaa !8
  %123 = load ptr, ptr %6, align 8, !tbaa !14
  %124 = load i32, ptr %8, align 4, !tbaa !8
  %125 = sext i32 %124 to i64
  %126 = getelementptr inbounds i32, ptr %123, i64 %125
  %127 = load i32, ptr %126, align 4, !tbaa !8
  %128 = add nsw i32 %127, %122
  store i32 %128, ptr %126, align 4, !tbaa !8
  br label %129

129:                                              ; preds = %121, %114
  br label %130

130:                                              ; preds = %129
  %131 = load i32, ptr %8, align 4, !tbaa !8
  %132 = add nsw i32 %131, 1
  store i32 %132, ptr %8, align 4, !tbaa !8
  br label %110, !llvm.loop !18

133:                                              ; preds = %110
  br label %134

134:                                              ; preds = %133, %96
  %135 = load i32, ptr %9, align 4, !tbaa !8
  %136 = add nsw i32 %135, 1
  store i32 %136, ptr %9, align 4, !tbaa !8
  %137 = load ptr, ptr %4, align 8, !tbaa !3
  %138 = load i32, ptr %9, align 4, !tbaa !8
  %139 = sext i32 %138 to i64
  %140 = getelementptr inbounds i64, ptr %137, i64 %139
  %141 = load i64, ptr %140, align 8, !tbaa !10
  %142 = icmp ne i64 %141, 0
  br i1 %142, label %143, label %174

143:                                              ; preds = %134
  %144 = load ptr, ptr %4, align 8, !tbaa !3
  %145 = load i32, ptr %9, align 4, !tbaa !8
  %146 = sext i32 %145 to i64
  %147 = getelementptr inbounds i64, ptr %144, i64 %146
  %148 = load i64, ptr %147, align 8, !tbaa !10
  %149 = call i32 @Abc_TtCountOnes(i64 noundef %148)
  store i32 %149, ptr %10, align 4, !tbaa !8
  store i32 6, ptr %8, align 4, !tbaa !8
  br label %150

150:                                              ; preds = %170, %143
  %151 = load i32, ptr %8, align 4, !tbaa !8
  %152 = load i32, ptr %5, align 4, !tbaa !8
  %153 = icmp slt i32 %151, %152
  br i1 %153, label %154, label %173

154:                                              ; preds = %150
  %155 = load i32, ptr %9, align 4, !tbaa !8
  %156 = load i32, ptr %8, align 4, !tbaa !8
  %157 = sub nsw i32 %156, 6
  %158 = shl i32 1, %157
  %159 = and i32 %155, %158
  %160 = icmp eq i32 %159, 0
  br i1 %160, label %161, label %169

161:                                              ; preds = %154
  %162 = load i32, ptr %10, align 4, !tbaa !8
  %163 = load ptr, ptr %6, align 8, !tbaa !14
  %164 = load i32, ptr %8, align 4, !tbaa !8
  %165 = sext i32 %164 to i64
  %166 = getelementptr inbounds i32, ptr %163, i64 %165
  %167 = load i32, ptr %166, align 4, !tbaa !8
  %168 = add nsw i32 %167, %162
  store i32 %168, ptr %166, align 4, !tbaa !8
  br label %169

169:                                              ; preds = %161, %154
  br label %170

170:                                              ; preds = %169
  %171 = load i32, ptr %8, align 4, !tbaa !8
  %172 = add nsw i32 %171, 1
  store i32 %172, ptr %8, align 4, !tbaa !8
  br label %150, !llvm.loop !19

173:                                              ; preds = %150
  br label %174

174:                                              ; preds = %173, %134
  br label %175

175:                                              ; preds = %174
  %176 = load i32, ptr %9, align 4, !tbaa !8
  %177 = add nsw i32 %176, 1
  store i32 %177, ptr %9, align 4, !tbaa !8
  br label %47, !llvm.loop !20

178:                                              ; preds = %47
  store i32 0, ptr %12, align 4
  br label %179

179:                                              ; preds = %178, %39
  call void @llvm.lifetime.end.p0(i64 4, ptr %11) #12
  call void @llvm.lifetime.end.p0(i64 4, ptr %10) #12
  call void @llvm.lifetime.end.p0(i64 4, ptr %9) #12
  call void @llvm.lifetime.end.p0(i64 4, ptr %8) #12
  call void @llvm.lifetime.end.p0(i64 8, ptr %7) #12
  %180 = load i32, ptr %12, align 4
  switch i32 %180, label %182 [
    i32 0, label %181
    i32 1, label %181
  ]

181:                                              ; preds = %179, %179
  ret void

182:                                              ; preds = %179
  unreachable
}