; Function Attrs: inlinehint nofree norecurse nosync nounwind memory(argmem: readwrite) uwtable
define internal fastcc void @Abc_TtCountOnesInCofs(ptr noundef readonly captures(none) %0, i32 noundef %1, ptr noundef captures(none) %2) unnamed_addr #2 {
  %4 = icmp slt i32 %1, 7
  br i1 %4, label %.preheader, label %30

.preheader:                                       ; preds = %3
  %5 = icmp sgt i32 %1, 0
  br i1 %5, label %.lr.ph70, label %.loopexit

.lr.ph70:                                         ; preds = %.preheader
  %6 = load i64, ptr %0, align 8, !tbaa !3
  %wide.trip.count89 = zext nneg i32 %1 to i64
  br label %7

7:                                                ; preds = %.lr.ph70, %7
  %indvars.iv86 = phi i64 [ 0, %.lr.ph70 ], [ %indvars.iv.next87, %7 ]
  %8 = getelementptr inbounds nuw [6 x i64], ptr @s_Truths6Neg, i64 0, i64 %indvars.iv86
  %9 = load i64, ptr %8, align 8, !tbaa !3
  %10 = and i64 %9, %6
  %11 = lshr i64 %10, 1
  %12 = and i64 %11, 6148914691236517205
  %13 = sub i64 %10, %12
  %14 = and i64 %13, 3689348814741910323
  %15 = lshr i64 %13, 2
  %16 = and i64 %15, 3689348814741910323
  %17 = add nuw nsw i64 %16, %14
  %18 = lshr i64 %17, 4
  %19 = add nuw nsw i64 %18, %17
  %20 = and i64 %19, 1085102592571150095
  %21 = lshr i64 %20, 8
  %22 = add nuw nsw i64 %21, %20
  %23 = lshr i64 %22, 16
  %24 = add nuw nsw i64 %23, %22
  %25 = lshr i64 %24, 32
  %26 = add nuw nsw i64 %25, %24
  %27 = trunc i64 %26 to i32
  %28 = and i32 %27, 255
  %29 = getelementptr inbounds nuw i32, ptr %2, i64 %indvars.iv86
  store i32 %28, ptr %29, align 4, !tbaa !10
  %indvars.iv.next87 = add nuw nsw i64 %indvars.iv86, 1
  %exitcond90.not = icmp eq i64 %indvars.iv.next87, %wide.trip.count89
  br i1 %exitcond90.not, label %.loopexit, label %7, !llvm.loop !12

30:                                               ; preds = %3
  %31 = add nsw i32 %1, -6
  %32 = zext nneg i32 %1 to i64
  %33 = shl nuw nsw i64 %32, 2
  tail call void @llvm.memset.p0.i64(ptr align 4 %2, i8 0, i64 %33, i1 false)
  %.not71 = icmp eq i32 %31, 31
  br i1 %.not71, label %.loopexit, label %.preheader62.lr.ph

.preheader62.lr.ph:                               ; preds = %30
  %34 = shl nuw i32 1, %31
  %35 = sext i32 %34 to i64
  br label %.preheader62

.preheader62:                                     ; preds = %.preheader62.lr.ph, %.loopexit60
  %indvars.iv83 = phi i64 [ 0, %.preheader62.lr.ph ], [ %indvars.iv.next84, %.loopexit60 ]
  %36 = getelementptr inbounds nuw i64, ptr %0, i64 %indvars.iv83
  %37 = load i64, ptr %36, align 8, !tbaa !3
  %38 = or disjoint i64 %indvars.iv83, 1
  %39 = getelementptr inbounds nuw i64, ptr %0, i64 %38
  %40 = load i64, ptr %39, align 8, !tbaa !3
  br label %41

41:                                               ; preds = %.preheader62, %73
  %indvars.iv = phi i64 [ 0, %.preheader62 ], [ %indvars.iv.next, %73 ]
  %42 = getelementptr inbounds nuw [6 x i64], ptr @s_Truths6Neg, i64 0, i64 %indvars.iv
  %43 = load i64, ptr %42, align 8, !tbaa !3
  %44 = and i64 %43, %37
  %45 = and i64 %40, %43
  %46 = trunc nuw nsw i64 %indvars.iv to i32
  %47 = shl nuw nsw i32 1, %46
  %48 = zext nneg i32 %47 to i64
  %49 = shl i64 %45, %48
  %50 = or i64 %49, %44
  %.not59 = icmp eq i64 %50, 0
  br i1 %.not59, label %73, label %51

51:                                               ; preds = %41
  %52 = lshr i64 %50, 1
  %53 = and i64 %52, 6148914691236517205
  %54 = sub i64 %50, %53
  %55 = and i64 %54, 3689348814741910323
  %56 = lshr i64 %54, 2
  %57 = and i64 %56, 3689348814741910323
  %58 = add nuw nsw i64 %57, %55
  %59 = lshr i64 %58, 4
  %60 = add nuw nsw i64 %59, %58
  %61 = and i64 %60, 1085102592571150095
  %62 = lshr i64 %61, 8
  %63 = add nuw nsw i64 %62, %61
  %64 = lshr i64 %63, 16
  %65 = add nuw nsw i64 %64, %63
  %66 = lshr i64 %65, 32
  %67 = add nuw nsw i64 %66, %65
  %68 = trunc i64 %67 to i32
  %69 = and i32 %68, 255
  %70 = getelementptr inbounds nuw i32, ptr %2, i64 %indvars.iv
  %71 = load i32, ptr %70, align 4, !tbaa !10
  %72 = add nsw i32 %71, %69
  store i32 %72, ptr %70, align 4, !tbaa !10
  br label %73

73:                                               ; preds = %41, %51
  %indvars.iv.next = add nuw nsw i64 %indvars.iv, 1
  %exitcond.not = icmp eq i64 %indvars.iv.next, 6
  br i1 %exitcond.not, label %74, label %41, !llvm.loop !13

74:                                               ; preds = %73
  %.not = icmp eq i64 %37, 0
  br i1 %.not, label %.loopexit61, label %.lr.ph.preheader

.lr.ph.preheader:                                 ; preds = %74
  %75 = lshr i64 %37, 1
  %76 = and i64 %75, 6148914691236517205
  %77 = sub i64 %37, %76
  %78 = and i64 %77, 3689348814741910323
  %79 = lshr i64 %77, 2
  %80 = and i64 %79, 3689348814741910323
  %81 = add nuw nsw i64 %80, %78
  %82 = lshr i64 %81, 4
  %83 = add nuw nsw i64 %82, %81
  %84 = and i64 %83, 1085102592571150095
  %85 = lshr i64 %84, 8
  %86 = add nuw nsw i64 %85, %84
  %87 = lshr i64 %86, 16
  %88 = add nuw nsw i64 %87, %86
  %89 = lshr i64 %88, 32
  %90 = add nuw nsw i64 %89, %88
  %91 = trunc i64 %90 to i32
  %92 = and i32 %91, 255
  %93 = trunc nuw nsw i64 %indvars.iv83 to i32
  br label %.lr.ph

.lr.ph:                                           ; preds = %.lr.ph.preheader, %103
  %indvars.iv74 = phi i64 [ 6, %.lr.ph.preheader ], [ %indvars.iv.next75, %103 ]
  %94 = trunc i64 %indvars.iv74 to i32
  %95 = add i32 %94, -6
  %96 = shl nuw i32 1, %95
  %97 = and i32 %96, %93
  %98 = icmp eq i32 %97, 0
  br i1 %98, label %99, label %103

99:                                               ; preds = %.lr.ph
  %100 = getelementptr inbounds nuw i32, ptr %2, i64 %indvars.iv74
  %101 = load i32, ptr %100, align 4, !tbaa !10
  %102 = add nsw i32 %101, %92
  store i32 %102, ptr %100, align 4, !tbaa !10
  br label %103

103:                                              ; preds = %.lr.ph, %99
  %indvars.iv.next75 = add nuw nsw i64 %indvars.iv74, 1
  %exitcond77.not = icmp eq i64 %indvars.iv.next75, %32
  br i1 %exitcond77.not, label %.loopexit61, label %.lr.ph, !llvm.loop !14

.loopexit61:                                      ; preds = %103, %74
  %.not58 = icmp eq i64 %40, 0
  br i1 %.not58, label %.loopexit60, label %.lr.ph67.preheader

.lr.ph67.preheader:                               ; preds = %.loopexit61
  %104 = lshr i64 %40, 1
  %105 = and i64 %104, 6148914691236517205
  %106 = sub i64 %40, %105
  %107 = and i64 %106, 3689348814741910323
  %108 = lshr i64 %106, 2
  %109 = and i64 %108, 3689348814741910323
  %110 = add nuw nsw i64 %109, %107
  %111 = lshr i64 %110, 4
  %112 = add nuw nsw i64 %111, %110
  %113 = and i64 %112, 1085102592571150095
  %114 = lshr i64 %113, 8
  %115 = add nuw nsw i64 %114, %113
  %116 = lshr i64 %115, 16
  %117 = add nuw nsw i64 %116, %115
  %118 = lshr i64 %117, 32
  %119 = add nuw nsw i64 %118, %117
  %120 = trunc i64 %119 to i32
  %121 = and i32 %120, 255
  %122 = trunc nuw nsw i64 %38 to i32
  br label %.lr.ph67

.lr.ph67:                                         ; preds = %.lr.ph67.preheader, %132
  %indvars.iv78 = phi i64 [ 6, %.lr.ph67.preheader ], [ %indvars.iv.next79, %132 ]
  %123 = trunc i64 %indvars.iv78 to i32
  %124 = add i32 %123, -6
  %125 = shl nuw i32 1, %124
  %126 = and i32 %125, %122
  %127 = icmp eq i32 %126, 0
  br i1 %127, label %128, label %132

128:                                              ; preds = %.lr.ph67
  %129 = getelementptr inbounds nuw i32, ptr %2, i64 %indvars.iv78
  %130 = load i32, ptr %129, align 4, !tbaa !10
  %131 = add nsw i32 %130, %121
  store i32 %131, ptr %129, align 4, !tbaa !10
  br label %132

132:                                              ; preds = %.lr.ph67, %128
  %indvars.iv.next79 = add nuw nsw i64 %indvars.iv78, 1
  %exitcond82.not = icmp eq i64 %indvars.iv.next79, %32
  br i1 %exitcond82.not, label %.loopexit60, label %.lr.ph67, !llvm.loop !15

.loopexit60:                                      ; preds = %132, %.loopexit61
  %indvars.iv.next84 = add nuw nsw i64 %indvars.iv83, 2
  %133 = icmp slt i64 %indvars.iv.next84, %35
  br i1 %133, label %.preheader62, label %.loopexit, !llvm.loop !16

.loopexit:                                        ; preds = %.loopexit60, %7, %30, %.preheader
  ret void
}